target datalayout = "e-m:e-p270:32:32-p271:32:32-p272:64:64-i64:64-i128:128-f80:128-n8:16:32:64-S128"
target triple = "x86_64-pc-linux-gnu"

%class.Handle = type { ptr }
%class.BaseFrameStream = type { ptr, ptr, %class.Handle, i64 }

; Function Attrs: mustprogress nounwind uwtable
define hidden void @_ZN15BaseFrameStreamC2EP10JavaThread6Handle(ptr noundef nonnull align 8 dereferenceable(32) %0, ptr noundef %1, ptr %2) unnamed_addr #1 align 2 {
  %4 = alloca %class.Handle, align 8
  %5 = alloca ptr, align 8
  %6 = alloca ptr, align 8
  %7 = getelementptr inbounds %class.Handle, ptr %4, i32 0, i32 0
  store ptr %2, ptr %7, align 8
  store ptr %0, ptr %5, align 8
  store ptr %1, ptr %6, align 8
  %8 = load ptr, ptr %5, align 8
  store ptr getelementptr inbounds inrange(-16, 56) ({ [9 x ptr] }, ptr @_ZTV15BaseFrameStream, i32 0, i32 0, i32 2), ptr %8, align 8
  %9 = getelementptr inbounds %class.BaseFrameStream, ptr %8, i32 0, i32 1
  %10 = load ptr, ptr %6, align 8
  store ptr %10, ptr %9, align 8
  %11 = getelementptr inbounds %class.BaseFrameStream, ptr %8, i32 0, i32 2
  call void @llvm.memcpy.p0.p0.i64(ptr align 8 %11, ptr align 8 %4, i64 8, i1 false)
  %12 = getelementptr inbounds %class.BaseFrameStream, ptr %8, i32 0, i32 3
  store i64 0, ptr %12, align 8
  ret void
}