; Function Attrs: mustprogress nofree norecurse nosync nounwind willreturn memory(argmem: write) uwtable
define hidden void @_ZN15BaseFrameStreamC2EP10JavaThread6Handle(ptr nocapture noundef nonnull writeonly align 8 dereferenceable(32) %0, ptr noundef %1, ptr %2) unnamed_addr #0 align 2 {
  store ptr getelementptr inbounds inrange(-16, 56) (i8, ptr @_ZTV15BaseFrameStream, i64 16), ptr %0, align 8
  %4 = getelementptr inbounds i8, ptr %0, i64 8
  store ptr %1, ptr %4, align 8
  %5 = getelementptr inbounds i8, ptr %0, i64 16
  store ptr %2, ptr %5, align 8
  %6 = getelementptr inbounds i8, ptr %0, i64 24
  store i64 0, ptr %6, align 8
  ret void
}